; Function Attrs: mustprogress nounwind uwtable
define hidden void @_ZN4cvc58internal22UninterpretedSortValueD2Ev(ptr noundef nonnull align 8 dereferenceable(24) %0) unnamed_addr #7 align 2 personality ptr @__gxx_personality_v0 {
  %2 = getelementptr inbounds nuw i8, ptr %0, i64 8
  invoke void @__gmpz_clear(ptr noundef nonnull align 8 dereferenceable(16) %2)
          to label %_ZN4cvc58internal7IntegerD2Ev.exit unwind label %3

3:                                                ; preds = %1
  %4 = landingpad { ptr, i32 }
          catch ptr null
  %5 = extractvalue { ptr, i32 } %4, 0
  tail call void @__clang_call_terminate(ptr %5) #16
  unreachable

_ZN4cvc58internal7IntegerD2Ev.exit:               ; preds = %1
  %6 = load ptr, ptr %0, align 8, !tbaa !3
  %.not.i = icmp eq ptr %6, null
  br i1 %.not.i, label %_ZNSt10unique_ptrIN4cvc58internal8TypeNodeESt14default_deleteIS2_EED2Ev.exit, label %7

7:                                                ; preds = %_ZN4cvc58internal7IntegerD2Ev.exit
  %8 = load ptr, ptr %6, align 8, !tbaa !10
  %9 = load i64, ptr %8, align 8
  %10 = and i64 %9, 1152920405095219200
  %.not.i.i.i.i = icmp eq i64 %10, 1152920405095219200
  br i1 %.not.i.i.i.i, label %_ZNKSt14default_deleteIN4cvc58internal8TypeNodeEEclEPS2_.exit.i, label %11, !prof !21

11:                                               ; preds = %7
  %12 = add i64 %9, 1152920405095219200
  %13 = and i64 %12, 1152920405095219200
  %14 = and i64 %9, -1152920405095219201
  %15 = or disjoint i64 %13, %14
  store i64 %15, ptr %8, align 8
  %16 = icmp eq i64 %13, 0
  br i1 %16, label %17, label %_ZNKSt14default_deleteIN4cvc58internal8TypeNodeEEclEPS2_.exit.i, !prof !21

17:                                               ; preds = %11
  invoke void @_ZN4cvc58internal4expr9NodeValue15markForDeletionEv(ptr noundef nonnull align 8 dereferenceable(24) %8)
          to label %_ZNKSt14default_deleteIN4cvc58internal8TypeNodeEEclEPS2_.exit.i unwind label %18

18:                                               ; preds = %17
  %19 = landingpad { ptr, i32 }
          catch ptr null
  %20 = extractvalue { ptr, i32 } %19, 0
  tail call void @__clang_call_terminate(ptr %20) #16
  unreachable

_ZNKSt14default_deleteIN4cvc58internal8TypeNodeEEclEPS2_.exit.i: ; preds = %17, %11, %7
  tail call void @_ZdlPvm(ptr noundef nonnull %6, i64 noundef 8) #14
  br label %_ZNSt10unique_ptrIN4cvc58internal8TypeNodeESt14default_deleteIS2_EED2Ev.exit

_ZNSt10unique_ptrIN4cvc58internal8TypeNodeESt14default_deleteIS2_EED2Ev.exit: ; preds = %_ZN4cvc58internal7IntegerD2Ev.exit, %_ZNKSt14default_deleteIN4cvc58internal8TypeNodeEEclEPS2_.exit.i
  store ptr null, ptr %0, align 8, !tbaa !3
  ret void
}